target datalayout = "e-m:e-p270:32:32-p271:32:32-p272:64:64-i64:64-i128:128-f80:128-n8:16:32:64-S128"
target triple = "x86_64-pc-linux-gnu"

%class.Effect = type <{ %"class.std::vector.8", %"class.std::vector.8", %"class.std::vector.8", i8, i8, [6 x i8] }>
%"class.std::vector.8" = type { %"struct.std::_Vector_base.9" }
%"struct.std::_Vector_base.9" = type { %"struct.std::_Vector_base<const Variable *, std::allocator<const Variable *>>::_Vector_impl" }
%"struct.std::_Vector_base<const Variable *, std::allocator<const Variable *>>::_Vector_impl" = type { %"struct.std::_Vector_base<const Variable *, std::allocator<const Variable *>>::_Vector_impl_data" }
%"struct.std::_Vector_base<const Variable *, std::allocator<const Variable *>>::_Vector_impl_data" = type { ptr, ptr, ptr }
%class.CGContext = type { ptr, i32, i32, i32, %"class.std::vector.0", ptr, ptr, %"class.std::map", ptr, ptr, ptr, %class.Effect }
%"class.std::vector.0" = type { %"struct.std::_Vector_base.1" }
%"struct.std::_Vector_base.1" = type { %"struct.std::_Vector_base<const Block *, std::allocator<const Block *>>::_Vector_impl" }
%"struct.std::_Vector_base<const Block *, std::allocator<const Block *>>::_Vector_impl" = type { %"struct.std::_Vector_base<const Block *, std::allocator<const Block *>>::_Vector_impl_data" }
%"struct.std::_Vector_base<const Block *, std::allocator<const Block *>>::_Vector_impl_data" = type { ptr, ptr, ptr }
%"class.std::map" = type { %"class.std::_Rb_tree" }
%"class.std::_Rb_tree" = type { %"struct.std::_Rb_tree<const Variable *, std::pair<const Variable *const, unsigned int>, std::_Select1st<std::pair<const Variable *const, unsigned int>>, std::less<const Variable *>>::_Rb_tree_impl" }
%"struct.std::_Rb_tree<const Variable *, std::pair<const Variable *const, unsigned int>, std::_Select1st<std::pair<const Variable *const, unsigned int>>, std::less<const Variable *>>::_Rb_tree_impl" = type { %"struct.std::_Rb_tree_key_compare", %"struct.std::_Rb_tree_header" }
%"struct.std::_Rb_tree_key_compare" = type { %"struct.std::less" }
%"struct.std::less" = type { i8 }
%"struct.std::_Rb_tree_header" = type { %"struct.std::_Rb_tree_node_base", i64 }
%"struct.std::_Rb_tree_node_base" = type { i32, ptr, ptr, ptr }
%class.FactMgr = type { %"class.std::map.53", %"class.std::map.53", %"class.std::map.61", %"class.std::map.61", %"class.std::map.66", %"class.std::map.66", %"class.std::map.71", %"class.std::vector.76", %"class.std::vector.81", ptr }
%"class.std::map.53" = type { %"class.std::_Rb_tree.54" }
%"class.std::_Rb_tree.54" = type { %"struct.std::_Rb_tree<const Statement *, std::pair<const Statement *const, std::vector<const Fact *>>, std::_Select1st<std::pair<const Statement *const, std::vector<const Fact *>>>, std::less<const Statement *>>::_Rb_tree_impl" }
%"struct.std::_Rb_tree<const Statement *, std::pair<const Statement *const, std::vector<const Fact *>>, std::_Select1st<std::pair<const Statement *const, std::vector<const Fact *>>>, std::less<const Statement *>>::_Rb_tree_impl" = type { %"struct.std::_Rb_tree_key_compare.58", %"struct.std::_Rb_tree_header" }
%"struct.std::_Rb_tree_key_compare.58" = type { %"struct.std::less.59" }
%"struct.std::less.59" = type { i8 }
%"class.std::map.61" = type { %"class.std::_Rb_tree.62" }
%"class.std::_Rb_tree.62" = type { %"struct.std::_Rb_tree<const Statement *, std::pair<const Statement *const, std::vector<Fact *>>, std::_Select1st<std::pair<const Statement *const, std::vector<Fact *>>>, std::less<const Statement *>>::_Rb_tree_impl" }
%"struct.std::_Rb_tree<const Statement *, std::pair<const Statement *const, std::vector<Fact *>>, std::_Select1st<std::pair<const Statement *const, std::vector<Fact *>>>, std::less<const Statement *>>::_Rb_tree_impl" = type { %"struct.std::_Rb_tree_key_compare.58", %"struct.std::_Rb_tree_header" }
%"class.std::map.66" = type { %"class.std::_Rb_tree.67" }
%"class.std::_Rb_tree.67" = type { %"struct.std::_Rb_tree<const Statement *, std::pair<const Statement *const, Effect>, std::_Select1st<std::pair<const Statement *const, Effect>>, std::less<const Statement *>>::_Rb_tree_impl" }
%"struct.std::_Rb_tree<const Statement *, std::pair<const Statement *const, Effect>, std::_Select1st<std::pair<const Statement *const, Effect>>, std::less<const Statement *>>::_Rb_tree_impl" = type { %"struct.std::_Rb_tree_key_compare.58", %"struct.std::_Rb_tree_header" }
%"class.std::map.71" = type { %"class.std::_Rb_tree.72" }
%"class.std::_Rb_tree.72" = type { %"struct.std::_Rb_tree<const Statement *, std::pair<const Statement *const, bool>, std::_Select1st<std::pair<const Statement *const, bool>>, std::less<const Statement *>>::_Rb_tree_impl" }
%"struct.std::_Rb_tree<const Statement *, std::pair<const Statement *const, bool>, std::_Select1st<std::pair<const Statement *const, bool>>, std::less<const Statement *>>::_Rb_tree_impl" = type { %"struct.std::_Rb_tree_key_compare.58", %"struct.std::_Rb_tree_header" }
%"class.std::vector.76" = type { %"struct.std::_Vector_base.77" }
%"struct.std::_Vector_base.77" = type { %"struct.std::_Vector_base<const CFGEdge *, std::allocator<const CFGEdge *>>::_Vector_impl" }
%"struct.std::_Vector_base<const CFGEdge *, std::allocator<const CFGEdge *>>::_Vector_impl" = type { %"struct.std::_Vector_base<const CFGEdge *, std::allocator<const CFGEdge *>>::_Vector_impl_data" }
%"struct.std::_Vector_base<const CFGEdge *, std::allocator<const CFGEdge *>>::_Vector_impl_data" = type { ptr, ptr, ptr }
%"class.std::vector.81" = type { %"struct.std::_Vector_base.82" }
%"struct.std::_Vector_base.82" = type { %"struct.std::_Vector_base<const Fact *, std::allocator<const Fact *>>::_Vector_impl" }
%"struct.std::_Vector_base<const Fact *, std::allocator<const Fact *>>::_Vector_impl" = type { %"struct.std::_Vector_base<const Fact *, std::allocator<const Fact *>>::_Vector_impl_data" }
%"struct.std::_Vector_base<const Fact *, std::allocator<const Fact *>>::_Vector_impl_data" = type { ptr, ptr, ptr }

; Function Attrs: mustprogress nounwind uwtable
define linkonce_odr dso_local noundef zeroext i1 @_ZNK6Effect19is_side_effect_freeEv(ptr noundef nonnull align 8 dereferenceable(74) %0) #4 comdat align 2 {
  %2 = alloca ptr, align 8
  store ptr %0, ptr %2, align 8
  %3 = load ptr, ptr %2, align 8
  %4 = getelementptr inbounds %class.Effect, ptr %3, i32 0, i32 4
  %5 = load i8, ptr %4, align 1
  %6 = trunc i8 %5 to i1
  ret i1 %6
}

; Function Attrs: mustprogress nounwind uwtable
define linkonce_odr dso_local noundef nonnull align 8 dereferenceable(74) ptr @_ZNK9CGContext18get_effect_contextEv(ptr noundef nonnull align 8 dereferenceable(216) %0) #4 comdat align 2 {
  %2 = alloca ptr, align 8
  store ptr %0, ptr %2, align 8
  %3 = load ptr, ptr %2, align 8
  %4 = getelementptr inbounds %class.CGContext, ptr %3, i32 0, i32 9
  %5 = load ptr, ptr %4, align 8
  ret ptr %5
}

; Function Attrs: mustprogress uwtable
define dso_local noundef zeroext i1 @_ZN16VariableSelector15is_eligible_varEPK8VariableiN6Effect6AccessERK9CGContext(ptr noundef %0, i32 noundef %1, i32 noundef %2, ptr noundef nonnull align 8 dereferenceable(216) %3) #5 align 2 personality ptr @__gxx_personality_v0 {
  %5 = alloca i1, align 1
  %6 = alloca ptr, align 8
  %7 = alloca i32, align 4
  %8 = alloca i32, align 4
  %9 = alloca ptr, align 8
  %10 = alloca ptr, align 8
  %11 = alloca ptr, align 8
  %12 = alloca %class.CGContext, align 8
  %13 = alloca ptr, align 8
  %14 = alloca i32, align 4
  %15 = alloca i32, align 4
  %16 = alloca ptr, align 8
  %17 = alloca i8, align 1
  %18 = alloca i8, align 1
  store ptr %0, ptr %6, align 8
  store i32 %1, ptr %7, align 4
  store i32 %2, ptr %8, align 4
  store ptr %3, ptr %9, align 8
  %19 = load ptr, ptr %6, align 8
  %20 = load ptr, ptr %19, align 8
  %21 = getelementptr inbounds ptr, ptr %20, i64 8
  %22 = load ptr, ptr %21, align 8
  %23 = call noundef ptr %22(ptr noundef nonnull align 8 dereferenceable(200) %19)
  store ptr %23, ptr %10, align 8
  %24 = load ptr, ptr %9, align 8
  %25 = call noundef ptr @_Z12get_fact_mgrPK9CGContext(ptr noundef %24)
  store ptr %25, ptr %11, align 8
  %26 = load ptr, ptr %10, align 8
  %27 = load ptr, ptr %6, align 8
  %28 = icmp ne ptr %26, %27
  br i1 %28, label %29, label %46

29:                                               ; preds = %4
  %30 = load ptr, ptr %9, align 8
  call void @_ZN9CGContextC2ERKS_(ptr noundef nonnull align 8 dereferenceable(216) %12, ptr noundef nonnull align 8 dereferenceable(216) %30)
  %31 = load ptr, ptr %6, align 8
  %32 = load ptr, ptr %11, align 8
  %33 = getelementptr inbounds %class.FactMgr, ptr %32, i32 0, i32 8
  %34 = invoke noundef zeroext i1 @_ZN9CGContext12read_indicesEPK8VariableRKSt6vectorIPK4FactSaIS6_EE(ptr noundef nonnull align 8 dereferenceable(216) %12, ptr noundef %31, ptr noundef nonnull align 8 dereferenceable(24) %33)
          to label %35 unwind label %37

35:                                               ; preds = %29
  br i1 %34, label %41, label %36

36:                                               ; preds = %35
  store i1 false, ptr %5, align 1
  store i32 1, ptr %15, align 4
  br label %43

37:                                               ; preds = %29
  %38 = landingpad { ptr, i32 }
          cleanup
  %39 = extractvalue { ptr, i32 } %38, 0
  store ptr %39, ptr %13, align 8
  %40 = extractvalue { ptr, i32 } %38, 1
  store i32 %40, ptr %14, align 4
  call void @_ZN9CGContextD1Ev(ptr noundef nonnull align 8 dereferenceable(216) %12) #3
  br label %129

41:                                               ; preds = %35
  %42 = load ptr, ptr %10, align 8
  store ptr %42, ptr %6, align 8
  store i32 0, ptr %15, align 4
  br label %43

43:                                               ; preds = %41, %36
  call void @_ZN9CGContextD1Ev(ptr noundef nonnull align 8 dereferenceable(216) %12) #3
  %44 = load i32, ptr %15, align 4
  switch i32 %44, label %134 [
    i32 0, label %45
    i32 1, label %127
  ]

45:                                               ; preds = %43
  br label %46

46:                                               ; preds = %45, %4
  %47 = load i32, ptr %7, align 4
  %48 = icmp sgt i32 %47, 0
  br i1 %48, label %49, label %54

49:                                               ; preds = %46
  %50 = load ptr, ptr %6, align 8
  %51 = load i32, ptr %7, align 4
  %52 = call noundef zeroext i1 @_ZNK8Variable31is_partial_volatile_after_derefEi(ptr noundef nonnull align 8 dereferenceable(200) %50, i32 noundef %51)
  br i1 %52, label %53, label %54

53:                                               ; preds = %49
  store i1 false, ptr %5, align 1
  br label %127

54:                                               ; preds = %49, %46
  %55 = load ptr, ptr %9, align 8
  %56 = call noundef nonnull align 8 dereferenceable(74) ptr @_ZNK9CGContext18get_effect_contextEv(ptr noundef nonnull align 8 dereferenceable(216) %55)
  store ptr %56, ptr %16, align 8
  %57 = load ptr, ptr %6, align 8
  %58 = load i32, ptr %7, align 4
  %59 = call noundef zeroext i1 @_ZNK8Variable20is_const_after_derefEi(ptr noundef nonnull align 8 dereferenceable(200) %57, i32 noundef %58)
  %60 = zext i1 %59 to i8
  store i8 %60, ptr %17, align 1
  %61 = load ptr, ptr %6, align 8
  %62 = load i32, ptr %7, align 4
  %63 = call noundef zeroext i1 @_ZNK8Variable23is_volatile_after_derefEi(ptr noundef nonnull align 8 dereferenceable(200) %61, i32 noundef %62)
  br i1 %63, label %67, label %64

64:                                               ; preds = %54
  %65 = load ptr, ptr %6, align 8
  %66 = call noundef zeroext i1 @_ZNK8Variable11is_volatileEv(ptr noundef nonnull align 8 dereferenceable(200) %65)
  br label %67

67:                                               ; preds = %64, %54
  %68 = phi i1 [ true, %54 ], [ %66, %64 ]
  %69 = zext i1 %68 to i8
  store i8 %69, ptr %18, align 1
  %70 = load i8, ptr %18, align 1
  %71 = trunc i8 %70 to i1
  br i1 %71, label %72, label %76

72:                                               ; preds = %67
  %73 = load ptr, ptr %16, align 8
  %74 = call noundef zeroext i1 @_ZNK6Effect19is_side_effect_freeEv(ptr noundef nonnull align 8 dereferenceable(74) %73)
  br i1 %74, label %76, label %75

75:                                               ; preds = %72
  store i1 false, ptr %5, align 1
  br label %127

76:                                               ; preds = %72, %67
  %77 = load i32, ptr %8, align 4
  %78 = icmp eq i32 %77, 0
  br i1 %78, label %82, label %79

79:                                               ; preds = %76
  %80 = load i32, ptr %8, align 4
  %81 = icmp eq i32 %80, 1
  br i1 %81, label %82, label %87

82:                                               ; preds = %79, %76
  %83 = load ptr, ptr %16, align 8
  %84 = load ptr, ptr %6, align 8
  %85 = call noundef zeroext i1 @_ZNK6Effect20is_written_partiallyEPK8Variable(ptr noundef nonnull align 8 dereferenceable(74) %83, ptr noundef %84)
  br i1 %85, label %86, label %87

86:                                               ; preds = %82
  store i1 false, ptr %5, align 1
  br label %127

87:                                               ; preds = %82, %79
  %88 = load i32, ptr %8, align 4
  %89 = icmp eq i32 %88, 1
  br i1 %89, label %90, label %98

90:                                               ; preds = %87
  %91 = load i32, ptr %7, align 4
  %92 = icmp eq i32 %91, 0
  br i1 %92, label %93, label %98

93:                                               ; preds = %90
  %94 = load ptr, ptr %16, align 8
  %95 = load ptr, ptr %6, align 8
  %96 = call noundef zeroext i1 @_ZNK6Effect17is_read_partiallyEPK8Variable(ptr noundef nonnull align 8 dereferenceable(74) %94, ptr noundef %95)
  br i1 %96, label %97, label %98

97:                                               ; preds = %93
  store i1 false, ptr %5, align 1
  br label %127

98:                                               ; preds = %93, %90, %87
  %99 = load i32, ptr %8, align 4
  %100 = icmp eq i32 %99, 1
  br i1 %100, label %101, label %105

101:                                              ; preds = %98
  %102 = load i8, ptr %17, align 1
  %103 = trunc i8 %102 to i1
  br i1 %103, label %104, label %105

104:                                              ; preds = %101
  store i1 false, ptr %5, align 1
  br label %127

105:                                              ; preds = %101, %98
  %106 = load i32, ptr %8, align 4
  %107 = icmp eq i32 %106, 0
  br i1 %107, label %108, label %118

108:                                              ; preds = %105
  %109 = load ptr, ptr %9, align 8
  %110 = load ptr, ptr %6, align 8
  %111 = call noundef zeroext i1 @_ZNK9CGContext14is_nonreadableEPK8Variable(ptr noundef nonnull align 8 dereferenceable(216) %109, ptr noundef %110)
  br i1 %111, label %117, label %112

112:                                              ; preds = %108
  %113 = load ptr, ptr %6, align 8
  %114 = load ptr, ptr %11, align 8
  %115 = getelementptr inbounds %class.FactMgr, ptr %114, i32 0, i32 8
  %116 = call noundef zeroext i1 @_ZN9FactUnion20is_nonreadable_fieldEPK8VariableRKSt6vectorIPK4FactSaIS6_EE(ptr noundef %113, ptr noundef nonnull align 8 dereferenceable(24) %115)
  br i1 %116, label %117, label %118

117:                                              ; preds = %112, %108
  store i1 false, ptr %5, align 1
  br label %127

118:                                              ; preds = %112, %105
  %119 = load i32, ptr %8, align 4
  %120 = icmp eq i32 %119, 1
  br i1 %120, label %121, label %126

121:                                              ; preds = %118
  %122 = load ptr, ptr %9, align 8
  %123 = load ptr, ptr %6, align 8
  %124 = call noundef zeroext i1 @_ZNK9CGContext14is_nonwritableEPK8Variable(ptr noundef nonnull align 8 dereferenceable(216) %122, ptr noundef %123)
  br i1 %124, label %125, label %126

125:                                              ; preds = %121
  store i1 false, ptr %5, align 1
  br label %127

126:                                              ; preds = %121, %118
  store i1 true, ptr %5, align 1
  br label %127

127:                                              ; preds = %126, %125, %117, %104, %97, %86, %75, %53, %43
  %128 = load i1, ptr %5, align 1
  ret i1 %128

129:                                              ; preds = %37
  %130 = load ptr, ptr %13, align 8
  %131 = load i32, ptr %14, align 4
  %132 = insertvalue { ptr, i32 } poison, ptr %130, 0
  %133 = insertvalue { ptr, i32 } %132, i32 %131, 1
  resume { ptr, i32 } %133

134:                                              ; preds = %43
  unreachable
}