; Function Attrs: mustprogress uwtable
define dso_local noundef zeroext i1 @_ZN16VariableSelector15is_eligible_varEPK8VariableiN6Effect6AccessERK9CGContext(ptr noundef %0, i32 noundef %1, i32 noundef %2, ptr noundef nonnull align 8 dereferenceable(216) %3) local_unnamed_addr #4 align 2 personality ptr @__gxx_personality_v0 {
  %5 = alloca %class.CGContext, align 8
  %6 = load ptr, ptr %0, align 8
  %7 = getelementptr inbounds i8, ptr %6, i64 64
  %8 = load ptr, ptr %7, align 8
  %9 = tail call noundef ptr %8(ptr noundef nonnull align 8 dereferenceable(200) %0)
  %10 = tail call noundef ptr @_Z12get_fact_mgrPK9CGContext(ptr noundef nonnull %3)
  %.not = icmp eq ptr %9, %0
  br i1 %.not, label %17, label %11

11:                                               ; preds = %4
  call void @_ZN9CGContextC2ERKS_(ptr noundef nonnull align 8 dereferenceable(216) %5, ptr noundef nonnull align 8 dereferenceable(216) %3)
  %12 = getelementptr inbounds i8, ptr %10, i64 360
  %13 = invoke noundef zeroext i1 @_ZN9CGContext12read_indicesEPK8VariableRKSt6vectorIPK4FactSaIS6_EE(ptr noundef nonnull align 8 dereferenceable(216) %5, ptr noundef nonnull %0, ptr noundef nonnull align 8 dereferenceable(24) %12)
          to label %14 unwind label %15

14:                                               ; preds = %11
  call void @_ZN9CGContextD1Ev(ptr noundef nonnull align 8 dereferenceable(216) %5) #19
  br i1 %13, label %17, label %48

15:                                               ; preds = %11
  %16 = landingpad { ptr, i32 }
          cleanup
  call void @_ZN9CGContextD1Ev(ptr noundef nonnull align 8 dereferenceable(216) %5) #19
  resume { ptr, i32 } %16

17:                                               ; preds = %14, %4
  %.144 = phi ptr [ %9, %14 ], [ %0, %4 ]
  %18 = icmp sgt i32 %1, 0
  br i1 %18, label %19, label %21

19:                                               ; preds = %17
  %20 = call noundef zeroext i1 @_ZNK8Variable31is_partial_volatile_after_derefEi(ptr noundef nonnull align 8 dereferenceable(200) %.144, i32 noundef %1)
  br i1 %20, label %48, label %21

21:                                               ; preds = %19, %17
  %22 = getelementptr inbounds i8, ptr %3, i64 120
  %23 = load ptr, ptr %22, align 8
  %24 = call noundef zeroext i1 @_ZNK8Variable20is_const_after_derefEi(ptr noundef nonnull align 8 dereferenceable(200) %.144, i32 noundef %1)
  %25 = call noundef zeroext i1 @_ZNK8Variable23is_volatile_after_derefEi(ptr noundef nonnull align 8 dereferenceable(200) %.144, i32 noundef %1)
  br i1 %25, label %.critedge, label %26

26:                                               ; preds = %21
  %27 = call noundef zeroext i1 @_ZNK8Variable11is_volatileEv(ptr noundef nonnull align 8 dereferenceable(200) %.144)
  br i1 %27, label %.critedge, label %31

.critedge:                                        ; preds = %21, %26
  %28 = getelementptr inbounds i8, ptr %23, i64 73
  %29 = load i8, ptr %28, align 1
  %30 = and i8 %29, 1
  %.not58 = icmp eq i8 %30, 0
  br i1 %.not58, label %48, label %31

31:                                               ; preds = %.critedge, %26
  %32 = icmp eq i32 %2, 0
  %33 = icmp eq i32 %2, 1
  %or.cond = icmp ult i32 %2, 2
  br i1 %or.cond, label %34, label %.thread57

34:                                               ; preds = %31
  %35 = call noundef zeroext i1 @_ZNK6Effect20is_written_partiallyEPK8Variable(ptr noundef nonnull align 8 dereferenceable(74) %23, ptr noundef nonnull %.144)
  br i1 %35, label %48, label %36

36:                                               ; preds = %34
  %37 = icmp eq i32 %1, 0
  %or.cond3 = and i1 %37, %33
  br i1 %or.cond3, label %38, label %40

38:                                               ; preds = %36
  %39 = call noundef zeroext i1 @_ZNK6Effect17is_read_partiallyEPK8Variable(ptr noundef nonnull align 8 dereferenceable(74) %23, ptr noundef nonnull %.144)
  %or.cond59 = or i1 %24, %39
  br i1 %or.cond59, label %48, label %.thread

40:                                               ; preds = %36
  %brmerge.demorgan.old = and i1 %33, %24
  br i1 %brmerge.demorgan.old, label %48, label %41

41:                                               ; preds = %40
  br i1 %32, label %42, label %.thread

42:                                               ; preds = %41
  %43 = call noundef zeroext i1 @_ZNK9CGContext14is_nonreadableEPK8Variable(ptr noundef nonnull align 8 dereferenceable(216) %3, ptr noundef nonnull %.144)
  br i1 %43, label %48, label %44

44:                                               ; preds = %42
  %45 = getelementptr inbounds i8, ptr %10, i64 360
  %46 = call noundef zeroext i1 @_ZN9FactUnion20is_nonreadable_fieldEPK8VariableRKSt6vectorIPK4FactSaIS6_EE(ptr noundef nonnull %.144, ptr noundef nonnull align 8 dereferenceable(24) %45)
  br i1 %46, label %48, label %.thread57

.thread:                                          ; preds = %38, %41
  %47 = call noundef zeroext i1 @_ZNK9CGContext14is_nonwritableEPK8Variable(ptr noundef nonnull align 8 dereferenceable(216) %3, ptr noundef nonnull %.144)
  br i1 %47, label %48, label %.thread57

.thread57:                                        ; preds = %31, %44, %.thread
  br label %48

48:                                               ; preds = %14, %.thread, %42, %44, %40, %38, %34, %.critedge, %19, %.thread57
  %.1 = phi i1 [ false, %14 ], [ true, %.thread57 ], [ false, %19 ], [ false, %.critedge ], [ false, %34 ], [ false, %38 ], [ false, %40 ], [ false, %44 ], [ false, %42 ], [ false, %.thread ]
  ret i1 %.1
}